; Function Attrs: mustprogress uwtable
define internal noalias noundef nonnull ptr @_ZNK7testing8internal30ValuesInIteratorRangeGeneratorIN11opencv_test12_GLOBAL__N_112_GLOBAL__N_110GuideTypesEE8Iterator5CloneEv(ptr nocapture noundef nonnull readonly align 8 dereferenceable(32) %0) unnamed_addr #3 align 2 personality ptr @__gxx_personality_v0 {
  %2 = tail call noalias noundef nonnull dereferenceable(32) ptr @_Znwm(i64 noundef 32) #29
  store ptr getelementptr inbounds inrange(-16, 56) (i8, ptr @_ZTVN7testing8internal30ValuesInIteratorRangeGeneratorIN11opencv_test12_GLOBAL__N_112_GLOBAL__N_110GuideTypesEE8IteratorE, i64 16), ptr %2, align 8
  %3 = getelementptr inbounds i8, ptr %2, i64 8
  %4 = getelementptr inbounds i8, ptr %0, i64 8
  %5 = load ptr, ptr %4, align 8
  store ptr %5, ptr %3, align 8
  %6 = getelementptr inbounds i8, ptr %2, i64 16
  %7 = getelementptr inbounds i8, ptr %0, i64 16
  %8 = load i64, ptr %7, align 8
  store i64 %8, ptr %6, align 8
  %9 = getelementptr inbounds i8, ptr %2, i64 24
  store ptr null, ptr %9, align 8
  ret ptr %2
}